00001000  E802000000        call 0x1007
00001005  EBFE              jmp short 0x1005
00001007  8D4C2404          lea ecx,[esp+0x4]
0000100B  83E4F0            and esp,byte -0x10
0000100E  FF71FC            push dword [ecx-0x4]
00001011  55                push ebp
00001012  89E5              mov ebp,esp
00001014  51                push ecx
00001015  83EC04            sub esp,byte +0x4
00001018  E897000000        call 0x10b4
0000101D  83EC0C            sub esp,byte +0xc
00001020  6800200000        push dword 0x2000
00001025  E8E1000000        call 0x110b
0000102A  83C410            add esp,byte +0x10
0000102D  90                nop
0000102E  8B4DFC            mov ecx,[ebp-0x4]
00001031  C9                leave
00001032  8D61FC            lea esp,[ecx-0x4]
00001035  C3                ret
00001036  55                push ebp
00001037  89E5              mov ebp,esp
00001039  83EC14            sub esp,byte +0x14
0000103C  8B4508            mov eax,[ebp+0x8]
0000103F  668945EC          mov [ebp-0x14],ax
00001043  0FB745EC          movzx eax,word [ebp-0x14]
00001047  89C2              mov edx,eax
00001049  EC                in al,dx
0000104A  8845FF            mov [ebp-0x1],al
0000104D  0FB645FF          movzx eax,byte [ebp-0x1]
00001051  C9                leave
00001052  C3                ret
00001053  55                push ebp
00001054  89E5              mov ebp,esp
00001056  83EC08            sub esp,byte +0x8
00001059  8B4508            mov eax,[ebp+0x8]
0000105C  8B550C            mov edx,[ebp+0xc]
0000105F  668945FC          mov [ebp-0x4],ax
00001063  89D0              mov eax,edx
00001065  8845F8            mov [ebp-0x8],al
00001068  0FB645F8          movzx eax,byte [ebp-0x8]
0000106C  0FB755FC          movzx edx,word [ebp-0x4]
00001070  EE                out dx,al
00001071  90                nop
00001072  C9                leave
00001073  C3                ret
00001074  55                push ebp
00001075  89E5              mov ebp,esp
00001077  83EC14            sub esp,byte +0x14
0000107A  8B4508            mov eax,[ebp+0x8]
0000107D  668945EC          mov [ebp-0x14],ax
00001081  0FB745EC          movzx eax,word [ebp-0x14]
00001085  89C2              mov edx,eax
00001087  66ED              in ax,dx
00001089  668945FE          mov [ebp-0x2],ax
0000108D  0FB745FE          movzx eax,word [ebp-0x2]
00001091  C9                leave
00001092  C3                ret
00001093  55                push ebp
00001094  89E5              mov ebp,esp
00001096  83EC08            sub esp,byte +0x8
00001099  8B5508            mov edx,[ebp+0x8]
0000109C  8B450C            mov eax,[ebp+0xc]
0000109F  668955FC          mov [ebp-0x4],dx
000010A3  668945F8          mov [ebp-0x8],ax
000010A7  0FB745F8          movzx eax,word [ebp-0x8]
000010AB  0FB755FC          movzx edx,word [ebp-0x4]
000010AF  66EF              out dx,ax
000010B1  90                nop
000010B2  C9                leave
000010B3  C3                ret
000010B4  55                push ebp
000010B5  89E5              mov ebp,esp
000010B7  83EC18            sub esp,byte +0x18
000010BA  C745F400800B00    mov dword [ebp-0xc],0xb8000
000010C1  C745F000000000    mov dword [ebp-0x10],0x0
000010C8  EB2B              jmp short 0x10f5
000010CA  C745EC00000000    mov dword [ebp-0x14],0x0
000010D1  EB18              jmp short 0x10eb
000010D3  8B45F4            mov eax,[ebp-0xc]
000010D6  C6002D            mov byte [eax],0x2d
000010D9  8345F401          add dword [ebp-0xc],byte +0x1
000010DD  8B45F4            mov eax,[ebp-0xc]
000010E0  C6000F            mov byte [eax],0xf
000010E3  8345F401          add dword [ebp-0xc],byte +0x1
000010E7  8345EC01          add dword [ebp-0x14],byte +0x1
000010EB  837DEC50          cmp dword [ebp-0x14],byte +0x50
000010EF  7EE2              jng 0x10d3
000010F1  8345F001          add dword [ebp-0x10],byte +0x1
000010F5  837DF018          cmp dword [ebp-0x10],byte +0x18
000010F9  7ECF              jng 0x10ca
000010FB  83EC0C            sub esp,byte +0xc
000010FE  6A00              push byte +0x0
00001100  E8F1000000        call 0x11f6
00001105  83C410            add esp,byte +0x10
00001108  90                nop
00001109  C9                leave
0000110A  C3                ret
0000110B  55                push ebp
0000110C  89E5              mov ebp,esp
0000110E  83EC18            sub esp,byte +0x18
00001111  E84D010000        call 0x1263
00001116  8945F4            mov [ebp-0xc],eax
00001119  83EC08            sub esp,byte +0x8
0000111C  FF75F4            push dword [ebp-0xc]
0000111F  6804200000        push dword 0x2004
00001124  E8A7010000        call 0x12d0
00001129  83C410            add esp,byte +0x10
0000112C  8345F402          add dword [ebp-0xc],byte +0x2
00001130  83EC0C            sub esp,byte +0xc
00001133  FF75F4            push dword [ebp-0xc]
00001136  E8BB000000        call 0x11f6
0000113B  83C410            add esp,byte +0x10
0000113E  90                nop
0000113F  C9                leave
00001140  C3                ret
00001141  55                push ebp
00001142  89E5              mov ebp,esp
00001144  83EC18            sub esp,byte +0x18
00001147  E817010000        call 0x1263
0000114C  8945F4            mov [ebp-0xc],eax
0000114F  8B4508            mov eax,[ebp+0x8]
00001152  8945F0            mov [ebp-0x10],eax
00001155  83EC08            sub esp,byte +0x8
00001158  FF75F4            push dword [ebp-0xc]
0000115B  FF75F0            push dword [ebp-0x10]
0000115E  E884010000        call 0x12e7
00001163  83C410            add esp,byte +0x10
00001166  8345F402          add dword [ebp-0xc],byte +0x2
0000116A  83EC0C            sub esp,byte +0xc
0000116D  FF75F4            push dword [ebp-0xc]
00001170  E881000000        call 0x11f6
00001175  83C410            add esp,byte +0x10
00001178  90                nop
00001179  C9                leave
0000117A  C3                ret
0000117B  55                push ebp
0000117C  89E5              mov ebp,esp
0000117E  83EC18            sub esp,byte +0x18
00001181  E8DD000000        call 0x1263
00001186  8945F4            mov [ebp-0xc],eax
00001189  8B4DF4            mov ecx,[ebp-0xc]
0000118C  BA67666666        mov edx,0x66666667
00001191  89C8              mov eax,ecx
00001193  F7EA              imul edx
00001195  89D0              mov eax,edx
00001197  C1F806            sar eax,byte 0x6
0000119A  C1F91F            sar ecx,byte 0x1f
0000119D  89CA              mov edx,ecx
0000119F  29D0              sub eax,edx
000011A1  8945EC            mov [ebp-0x14],eax
000011A4  8B45EC            mov eax,[ebp-0x14]
000011A7  8D5001            lea edx,[eax+0x1]
000011AA  89D0              mov eax,edx
000011AC  C1E002            shl eax,byte 0x2
000011AF  01D0              add eax,edx
000011B1  C1E005            shl eax,byte 0x5
000011B4  8945E8            mov [ebp-0x18],eax
000011B7  C745F000800B00    mov dword [ebp-0x10],0xb8000
000011BE  8B45F4            mov eax,[ebp-0xc]
000011C1  0145F0            add [ebp-0x10],eax
000011C4  EB17              jmp short 0x11dd
000011C6  8B45F0            mov eax,[ebp-0x10]
000011C9  C60020            mov byte [eax],0x20
000011CC  8B45F0            mov eax,[ebp-0x10]
000011CF  83C001            add eax,byte +0x1
000011D2  C6000F            mov byte [eax],0xf
000011D5  8345F002          add dword [ebp-0x10],byte +0x2
000011D9  8345F402          add dword [ebp-0xc],byte +0x2
000011DD  8B45F4            mov eax,[ebp-0xc]
000011E0  3B45E8            cmp eax,[ebp-0x18]
000011E3  7CE1              jl 0x11c6
000011E5  83EC0C            sub esp,byte +0xc
000011E8  FF75E8            push dword [ebp-0x18]
000011EB  E806000000        call 0x11f6
000011F0  83C410            add esp,byte +0x10
000011F3  90                nop
000011F4  C9                leave
000011F5  C3                ret
000011F6  55                push ebp
000011F7  89E5              mov ebp,esp
000011F9  83EC08            sub esp,byte +0x8
000011FC  8B4508            mov eax,[ebp+0x8]
000011FF  89C2              mov edx,eax
00001201  C1EA1F            shr edx,byte 0x1f
00001204  01D0              add eax,edx
00001206  D1F8              sar eax,1
00001208  894508            mov [ebp+0x8],eax
0000120B  83EC08            sub esp,byte +0x8
0000120E  6A0E              push byte +0xe
00001210  68D4030000        push dword 0x3d4
00001215  E839FEFFFF        call 0x1053
0000121A  83C410            add esp,byte +0x10
0000121D  8B4508            mov eax,[ebp+0x8]
00001220  C1F808            sar eax,byte 0x8
00001223  0FB6C0            movzx eax,al
00001226  83EC08            sub esp,byte +0x8
00001229  50                push eax
0000122A  68D5030000        push dword 0x3d5
0000122F  E81FFEFFFF        call 0x1053
00001234  83C410            add esp,byte +0x10
00001237  83EC08            sub esp,byte +0x8
0000123A  6A0F              push byte +0xf
0000123C  68D4030000        push dword 0x3d4
00001241  E80DFEFFFF        call 0x1053
00001246  83C410            add esp,byte +0x10
00001249  8B4508            mov eax,[ebp+0x8]
0000124C  0FB6C0            movzx eax,al
0000124F  83EC08            sub esp,byte +0x8
00001252  50                push eax
00001253  68D5030000        push dword 0x3d5
00001258  E8F6FDFFFF        call 0x1053
0000125D  83C410            add esp,byte +0x10
00001260  90                nop
00001261  C9                leave
00001262  C3                ret
00001263  55                push ebp
00001264  89E5              mov ebp,esp
00001266  83EC18            sub esp,byte +0x18
00001269  83EC08            sub esp,byte +0x8
0000126C  6A0E              push byte +0xe
0000126E  68D4030000        push dword 0x3d4
00001273  E8DBFDFFFF        call 0x1053
00001278  83C410            add esp,byte +0x10
0000127B  83EC0C            sub esp,byte +0xc
0000127E  68D5030000        push dword 0x3d5
00001283  E8AEFDFFFF        call 0x1036
00001288  83C410            add esp,byte +0x10
0000128B  0FB6C0            movzx eax,al
0000128E  C1E008            shl eax,byte 0x8
00001291  8945F4            mov [ebp-0xc],eax
00001294  83EC08            sub esp,byte +0x8
00001297  6A0F              push byte +0xf
00001299  68D4030000        push dword 0x3d4
0000129E  E8B0FDFFFF        call 0x1053
000012A3  83C410            add esp,byte +0x10
000012A6  83EC0C            sub esp,byte +0xc
000012A9  68D5030000        push dword 0x3d5
000012AE  E883FDFFFF        call 0x1036
000012B3  83C410            add esp,byte +0x10
000012B6  0FB6C0            movzx eax,al
000012B9  0145F4            add [ebp-0xc],eax
000012BC  8B45F4            mov eax,[ebp-0xc]
000012BF  01C0              add eax,eax
000012C1  C9                leave
000012C2  C3                ret
000012C3  6690              xchg ax,ax
000012C5  6690              xchg ax,ax
000012C7  6690              xchg ax,ax
000012C9  6690              xchg ax,ax
000012CB  6690              xchg ax,ax
000012CD  6690              xchg ax,ax
000012CF  90                nop
000012D0  55                push ebp
000012D1  89E5              mov ebp,esp
000012D3  8B5D08            mov ebx,[ebp+0x8]
000012D6  BA00800B00        mov edx,0xb8000
000012DB  03550C            add edx,[ebp+0xc]
000012DE  8A03              mov al,[ebx]
000012E0  B40F              mov ah,0xf
000012E2  668902            mov [edx],ax
000012E5  EB18              jmp short 0x12ff
000012E7  55                push ebp
000012E8  89E5              mov ebp,esp
000012EA  8B5D08            mov ebx,[ebp+0x8]
000012ED  BA00800B00        mov edx,0xb8000
000012F2  03550C            add edx,[ebp+0xc]
000012F5  66891A            mov [edx],bx
000012F8  B40F              mov ah,0xf
000012FA  668902            mov [edx],ax
000012FD  EB00              jmp short 0x12ff
000012FF  5D                pop ebp
00001300  C3                ret
00001301  0000              add [eax],al
00001303  0000              add [eax],al
00001305  0000              add [eax],al
00001307  0000              add [eax],al
00001309  0000              add [eax],al
0000130B  0000              add [eax],al
0000130D  0000              add [eax],al
0000130F  0000              add [eax],al
00001311  0000              add [eax],al
00001313  0000              add [eax],al
00001315  0000              add [eax],al
00001317  0000              add [eax],al
00001319  0000              add [eax],al
0000131B  0000              add [eax],al
0000131D  0000              add [eax],al
0000131F  0000              add [eax],al
00001321  0000              add [eax],al
00001323  0000              add [eax],al
00001325  0000              add [eax],al
00001327  0000              add [eax],al
00001329  0000              add [eax],al
0000132B  0000              add [eax],al
0000132D  0000              add [eax],al
0000132F  0000              add [eax],al
00001331  0000              add [eax],al
00001333  0000              add [eax],al
00001335  0000              add [eax],al
00001337  0000              add [eax],al
00001339  0000              add [eax],al
0000133B  0000              add [eax],al
0000133D  0000              add [eax],al
0000133F  0000              add [eax],al
00001341  0000              add [eax],al
00001343  0000              add [eax],al
00001345  0000              add [eax],al
00001347  0000              add [eax],al
00001349  0000              add [eax],al
0000134B  0000              add [eax],al
0000134D  0000              add [eax],al
0000134F  0000              add [eax],al
00001351  0000              add [eax],al
00001353  0000              add [eax],al
00001355  0000              add [eax],al
00001357  0000              add [eax],al
00001359  0000              add [eax],al
0000135B  0000              add [eax],al
0000135D  0000              add [eax],al
0000135F  0000              add [eax],al
00001361  0000              add [eax],al
00001363  0000              add [eax],al
00001365  0000              add [eax],al
00001367  0000              add [eax],al
00001369  0000              add [eax],al
0000136B  0000              add [eax],al
0000136D  0000              add [eax],al
0000136F  0000              add [eax],al
00001371  0000              add [eax],al
00001373  0000              add [eax],al
00001375  0000              add [eax],al
00001377  0000              add [eax],al
00001379  0000              add [eax],al
0000137B  0000              add [eax],al
0000137D  0000              add [eax],al
0000137F  0000              add [eax],al
00001381  0000              add [eax],al
00001383  0000              add [eax],al
00001385  0000              add [eax],al
00001387  0000              add [eax],al
00001389  0000              add [eax],al
0000138B  0000              add [eax],al
0000138D  0000              add [eax],al
0000138F  0000              add [eax],al
00001391  0000              add [eax],al
00001393  0000              add [eax],al
00001395  0000              add [eax],al
00001397  0000              add [eax],al
00001399  0000              add [eax],al
0000139B  0000              add [eax],al
0000139D  0000              add [eax],al
0000139F  0000              add [eax],al
000013A1  0000              add [eax],al
000013A3  0000              add [eax],al
000013A5  0000              add [eax],al
000013A7  0000              add [eax],al
000013A9  0000              add [eax],al
000013AB  0000              add [eax],al
000013AD  0000              add [eax],al
000013AF  0000              add [eax],al
000013B1  0000              add [eax],al
000013B3  0000              add [eax],al
000013B5  0000              add [eax],al
000013B7  0000              add [eax],al
000013B9  0000              add [eax],al
000013BB  0000              add [eax],al
000013BD  0000              add [eax],al
000013BF  0000              add [eax],al
000013C1  0000              add [eax],al
000013C3  0000              add [eax],al
000013C5  0000              add [eax],al
000013C7  0000              add [eax],al
000013C9  0000              add [eax],al
000013CB  0000              add [eax],al
000013CD  0000              add [eax],al
000013CF  0000              add [eax],al
000013D1  0000              add [eax],al
000013D3  0000              add [eax],al
000013D5  0000              add [eax],al
000013D7  0000              add [eax],al
000013D9  0000              add [eax],al
000013DB  0000              add [eax],al
000013DD  0000              add [eax],al
000013DF  0000              add [eax],al
000013E1  0000              add [eax],al
000013E3  0000              add [eax],al
000013E5  0000              add [eax],al
000013E7  0000              add [eax],al
000013E9  0000              add [eax],al
000013EB  0000              add [eax],al
000013ED  0000              add [eax],al
000013EF  0000              add [eax],al
000013F1  0000              add [eax],al
000013F3  0000              add [eax],al
000013F5  0000              add [eax],al
000013F7  0000              add [eax],al
000013F9  0000              add [eax],al
000013FB  0000              add [eax],al
000013FD  0000              add [eax],al
000013FF  0000              add [eax],al
00001401  0000              add [eax],al
00001403  0000              add [eax],al
00001405  0000              add [eax],al
00001407  0000              add [eax],al
00001409  0000              add [eax],al
0000140B  0000              add [eax],al
0000140D  0000              add [eax],al
0000140F  0000              add [eax],al
00001411  0000              add [eax],al
00001413  0000              add [eax],al
00001415  0000              add [eax],al
00001417  0000              add [eax],al
00001419  0000              add [eax],al
0000141B  0000              add [eax],al
0000141D  0000              add [eax],al
0000141F  0000              add [eax],al
00001421  0000              add [eax],al
00001423  0000              add [eax],al
00001425  0000              add [eax],al
00001427  0000              add [eax],al
00001429  0000              add [eax],al
0000142B  0000              add [eax],al
0000142D  0000              add [eax],al
0000142F  0000              add [eax],al
00001431  0000              add [eax],al
00001433  0000              add [eax],al
00001435  0000              add [eax],al
00001437  0000              add [eax],al
00001439  0000              add [eax],al
0000143B  0000              add [eax],al
0000143D  0000              add [eax],al
0000143F  0000              add [eax],al
00001441  0000              add [eax],al
00001443  0000              add [eax],al
00001445  0000              add [eax],al
00001447  0000              add [eax],al
00001449  0000              add [eax],al
0000144B  0000              add [eax],al
0000144D  0000              add [eax],al
0000144F  0000              add [eax],al
00001451  0000              add [eax],al
00001453  0000              add [eax],al
00001455  0000              add [eax],al
00001457  0000              add [eax],al
00001459  0000              add [eax],al
0000145B  0000              add [eax],al
0000145D  0000              add [eax],al
0000145F  0000              add [eax],al
00001461  0000              add [eax],al
00001463  0000              add [eax],al
00001465  0000              add [eax],al
00001467  0000              add [eax],al
00001469  0000              add [eax],al
0000146B  0000              add [eax],al
0000146D  0000              add [eax],al
0000146F  0000              add [eax],al
00001471  0000              add [eax],al
00001473  0000              add [eax],al
00001475  0000              add [eax],al
00001477  0000              add [eax],al
00001479  0000              add [eax],al
0000147B  0000              add [eax],al
0000147D  0000              add [eax],al
0000147F  0000              add [eax],al
00001481  0000              add [eax],al
00001483  0000              add [eax],al
00001485  0000              add [eax],al
00001487  0000              add [eax],al
00001489  0000              add [eax],al
0000148B  0000              add [eax],al
0000148D  0000              add [eax],al
0000148F  0000              add [eax],al
00001491  0000              add [eax],al
00001493  0000              add [eax],al
00001495  0000              add [eax],al
00001497  0000              add [eax],al
00001499  0000              add [eax],al
0000149B  0000              add [eax],al
0000149D  0000              add [eax],al
0000149F  0000              add [eax],al
000014A1  0000              add [eax],al
000014A3  0000              add [eax],al
000014A5  0000              add [eax],al
000014A7  0000              add [eax],al
000014A9  0000              add [eax],al
000014AB  0000              add [eax],al
000014AD  0000              add [eax],al
000014AF  0000              add [eax],al
000014B1  0000              add [eax],al
000014B3  0000              add [eax],al
000014B5  0000              add [eax],al
000014B7  0000              add [eax],al
000014B9  0000              add [eax],al
000014BB  0000              add [eax],al
000014BD  0000              add [eax],al
000014BF  0000              add [eax],al
000014C1  0000              add [eax],al
000014C3  0000              add [eax],al
000014C5  0000              add [eax],al
000014C7  0000              add [eax],al
000014C9  0000              add [eax],al
000014CB  0000              add [eax],al
000014CD  0000              add [eax],al
000014CF  0000              add [eax],al
000014D1  0000              add [eax],al
000014D3  0000              add [eax],al
000014D5  0000              add [eax],al
000014D7  0000              add [eax],al
000014D9  0000              add [eax],al
000014DB  0000              add [eax],al
000014DD  0000              add [eax],al
000014DF  0000              add [eax],al
000014E1  0000              add [eax],al
000014E3  0000              add [eax],al
000014E5  0000              add [eax],al
000014E7  0000              add [eax],al
000014E9  0000              add [eax],al
000014EB  0000              add [eax],al
000014ED  0000              add [eax],al
000014EF  0000              add [eax],al
000014F1  0000              add [eax],al
000014F3  0000              add [eax],al
000014F5  0000              add [eax],al
000014F7  0000              add [eax],al
000014F9  0000              add [eax],al
000014FB  0000              add [eax],al
000014FD  0000              add [eax],al
000014FF  0000              add [eax],al
00001501  0000              add [eax],al
00001503  0000              add [eax],al
00001505  0000              add [eax],al
00001507  0000              add [eax],al
00001509  0000              add [eax],al
0000150B  0000              add [eax],al
0000150D  0000              add [eax],al
0000150F  0000              add [eax],al
00001511  0000              add [eax],al
00001513  0000              add [eax],al
00001515  0000              add [eax],al
00001517  0000              add [eax],al
00001519  0000              add [eax],al
0000151B  0000              add [eax],al
0000151D  0000              add [eax],al
0000151F  0000              add [eax],al
00001521  0000              add [eax],al
00001523  0000              add [eax],al
00001525  0000              add [eax],al
00001527  0000              add [eax],al
00001529  0000              add [eax],al
0000152B  0000              add [eax],al
0000152D  0000              add [eax],al
0000152F  0000              add [eax],al
00001531  0000              add [eax],al
00001533  0000              add [eax],al
00001535  0000              add [eax],al
00001537  0000              add [eax],al
00001539  0000              add [eax],al
0000153B  0000              add [eax],al
0000153D  0000              add [eax],al
0000153F  0000              add [eax],al
00001541  0000              add [eax],al
00001543  0000              add [eax],al
00001545  0000              add [eax],al
00001547  0000              add [eax],al
00001549  0000              add [eax],al
0000154B  0000              add [eax],al
0000154D  0000              add [eax],al
0000154F  0000              add [eax],al
00001551  0000              add [eax],al
00001553  0000              add [eax],al
00001555  0000              add [eax],al
00001557  0000              add [eax],al
00001559  0000              add [eax],al
0000155B  0000              add [eax],al
0000155D  0000              add [eax],al
0000155F  0000              add [eax],al
00001561  0000              add [eax],al
00001563  0000              add [eax],al
00001565  0000              add [eax],al
00001567  0000              add [eax],al
00001569  0000              add [eax],al
0000156B  0000              add [eax],al
0000156D  0000              add [eax],al
0000156F  0000              add [eax],al
00001571  0000              add [eax],al
00001573  0000              add [eax],al
00001575  0000              add [eax],al
00001577  0000              add [eax],al
00001579  0000              add [eax],al
0000157B  0000              add [eax],al
0000157D  0000              add [eax],al
0000157F  0000              add [eax],al
00001581  0000              add [eax],al
00001583  0000              add [eax],al
00001585  0000              add [eax],al
00001587  0000              add [eax],al
00001589  0000              add [eax],al
0000158B  0000              add [eax],al
0000158D  0000              add [eax],al
0000158F  0000              add [eax],al
00001591  0000              add [eax],al
00001593  0000              add [eax],al
00001595  0000              add [eax],al
00001597  0000              add [eax],al
00001599  0000              add [eax],al
0000159B  0000              add [eax],al
0000159D  0000              add [eax],al
0000159F  0000              add [eax],al
000015A1  0000              add [eax],al
000015A3  0000              add [eax],al
000015A5  0000              add [eax],al
000015A7  0000              add [eax],al
000015A9  0000              add [eax],al
000015AB  0000              add [eax],al
000015AD  0000              add [eax],al
000015AF  0000              add [eax],al
000015B1  0000              add [eax],al
000015B3  0000              add [eax],al
000015B5  0000              add [eax],al
000015B7  0000              add [eax],al
000015B9  0000              add [eax],al
000015BB  0000              add [eax],al
000015BD  0000              add [eax],al
000015BF  0000              add [eax],al
000015C1  0000              add [eax],al
000015C3  0000              add [eax],al
000015C5  0000              add [eax],al
000015C7  0000              add [eax],al
000015C9  0000              add [eax],al
000015CB  0000              add [eax],al
000015CD  0000              add [eax],al
000015CF  0000              add [eax],al
000015D1  0000              add [eax],al
000015D3  0000              add [eax],al
000015D5  0000              add [eax],al
000015D7  0000              add [eax],al
000015D9  0000              add [eax],al
000015DB  0000              add [eax],al
000015DD  0000              add [eax],al
000015DF  0000              add [eax],al
000015E1  0000              add [eax],al
000015E3  0000              add [eax],al
000015E5  0000              add [eax],al
000015E7  0000              add [eax],al
000015E9  0000              add [eax],al
000015EB  0000              add [eax],al
000015ED  0000              add [eax],al
000015EF  0000              add [eax],al
000015F1  0000              add [eax],al
000015F3  0000              add [eax],al
000015F5  0000              add [eax],al
000015F7  0000              add [eax],al
000015F9  0000              add [eax],al
000015FB  0000              add [eax],al
000015FD  0000              add [eax],al
000015FF  0000              add [eax],al
00001601  0000              add [eax],al
00001603  0000              add [eax],al
00001605  0000              add [eax],al
00001607  0000              add [eax],al
00001609  0000              add [eax],al
0000160B  0000              add [eax],al
0000160D  0000              add [eax],al
0000160F  0000              add [eax],al
00001611  0000              add [eax],al
00001613  0000              add [eax],al
00001615  0000              add [eax],al
00001617  0000              add [eax],al
00001619  0000              add [eax],al
0000161B  0000              add [eax],al
0000161D  0000              add [eax],al
0000161F  0000              add [eax],al
00001621  0000              add [eax],al
00001623  0000              add [eax],al
00001625  0000              add [eax],al
00001627  0000              add [eax],al
00001629  0000              add [eax],al
0000162B  0000              add [eax],al
0000162D  0000              add [eax],al
0000162F  0000              add [eax],al
00001631  0000              add [eax],al
00001633  0000              add [eax],al
00001635  0000              add [eax],al
00001637  0000              add [eax],al
00001639  0000              add [eax],al
0000163B  0000              add [eax],al
0000163D  0000              add [eax],al
0000163F  0000              add [eax],al
00001641  0000              add [eax],al
00001643  0000              add [eax],al
00001645  0000              add [eax],al
00001647  0000              add [eax],al
00001649  0000              add [eax],al
0000164B  0000              add [eax],al
0000164D  0000              add [eax],al
0000164F  0000              add [eax],al
00001651  0000              add [eax],al
00001653  0000              add [eax],al
00001655  0000              add [eax],al
00001657  0000              add [eax],al
00001659  0000              add [eax],al
0000165B  0000              add [eax],al
0000165D  0000              add [eax],al
0000165F  0000              add [eax],al
00001661  0000              add [eax],al
00001663  0000              add [eax],al
00001665  0000              add [eax],al
00001667  0000              add [eax],al
00001669  0000              add [eax],al
0000166B  0000              add [eax],al
0000166D  0000              add [eax],al
0000166F  0000              add [eax],al
00001671  0000              add [eax],al
00001673  0000              add [eax],al
00001675  0000              add [eax],al
00001677  0000              add [eax],al
00001679  0000              add [eax],al
0000167B  0000              add [eax],al
0000167D  0000              add [eax],al
0000167F  0000              add [eax],al
00001681  0000              add [eax],al
00001683  0000              add [eax],al
00001685  0000              add [eax],al
00001687  0000              add [eax],al
00001689  0000              add [eax],al
0000168B  0000              add [eax],al
0000168D  0000              add [eax],al
0000168F  0000              add [eax],al
00001691  0000              add [eax],al
00001693  0000              add [eax],al
00001695  0000              add [eax],al
00001697  0000              add [eax],al
00001699  0000              add [eax],al
0000169B  0000              add [eax],al
0000169D  0000              add [eax],al
0000169F  0000              add [eax],al
000016A1  0000              add [eax],al
000016A3  0000              add [eax],al
000016A5  0000              add [eax],al
000016A7  0000              add [eax],al
000016A9  0000              add [eax],al
000016AB  0000              add [eax],al
000016AD  0000              add [eax],al
000016AF  0000              add [eax],al
000016B1  0000              add [eax],al
000016B3  0000              add [eax],al
000016B5  0000              add [eax],al
000016B7  0000              add [eax],al
000016B9  0000              add [eax],al
000016BB  0000              add [eax],al
000016BD  0000              add [eax],al
000016BF  0000              add [eax],al
000016C1  0000              add [eax],al
000016C3  0000              add [eax],al
000016C5  0000              add [eax],al
000016C7  0000              add [eax],al
000016C9  0000              add [eax],al
000016CB  0000              add [eax],al
000016CD  0000              add [eax],al
000016CF  0000              add [eax],al
000016D1  0000              add [eax],al
000016D3  0000              add [eax],al
000016D5  0000              add [eax],al
000016D7  0000              add [eax],al
000016D9  0000              add [eax],al
000016DB  0000              add [eax],al
000016DD  0000              add [eax],al
000016DF  0000              add [eax],al
000016E1  0000              add [eax],al
000016E3  0000              add [eax],al
000016E5  0000              add [eax],al
000016E7  0000              add [eax],al
000016E9  0000              add [eax],al
000016EB  0000              add [eax],al
000016ED  0000              add [eax],al
000016EF  0000              add [eax],al
000016F1  0000              add [eax],al
000016F3  0000              add [eax],al
000016F5  0000              add [eax],al
000016F7  0000              add [eax],al
000016F9  0000              add [eax],al
000016FB  0000              add [eax],al
000016FD  0000              add [eax],al
000016FF  0000              add [eax],al
00001701  0000              add [eax],al
00001703  0000              add [eax],al
00001705  0000              add [eax],al
00001707  0000              add [eax],al
00001709  0000              add [eax],al
0000170B  0000              add [eax],al
0000170D  0000              add [eax],al
0000170F  0000              add [eax],al
00001711  0000              add [eax],al
00001713  0000              add [eax],al
00001715  0000              add [eax],al
00001717  0000              add [eax],al
00001719  0000              add [eax],al
0000171B  0000              add [eax],al
0000171D  0000              add [eax],al
0000171F  0000              add [eax],al
00001721  0000              add [eax],al
00001723  0000              add [eax],al
00001725  0000              add [eax],al
00001727  0000              add [eax],al
00001729  0000              add [eax],al
0000172B  0000              add [eax],al
0000172D  0000              add [eax],al
0000172F  0000              add [eax],al
00001731  0000              add [eax],al
00001733  0000              add [eax],al
00001735  0000              add [eax],al
00001737  0000              add [eax],al
00001739  0000              add [eax],al
0000173B  0000              add [eax],al
0000173D  0000              add [eax],al
0000173F  0000              add [eax],al
00001741  0000              add [eax],al
00001743  0000              add [eax],al
00001745  0000              add [eax],al
00001747  0000              add [eax],al
00001749  0000              add [eax],al
0000174B  0000              add [eax],al
0000174D  0000              add [eax],al
0000174F  0000              add [eax],al
00001751  0000              add [eax],al
00001753  0000              add [eax],al
00001755  0000              add [eax],al
00001757  0000              add [eax],al
00001759  0000              add [eax],al
0000175B  0000              add [eax],al
0000175D  0000              add [eax],al
0000175F  0000              add [eax],al
00001761  0000              add [eax],al
00001763  0000              add [eax],al
00001765  0000              add [eax],al
00001767  0000              add [eax],al
00001769  0000              add [eax],al
0000176B  0000              add [eax],al
0000176D  0000              add [eax],al
0000176F  0000              add [eax],al
00001771  0000              add [eax],al
00001773  0000              add [eax],al
00001775  0000              add [eax],al
00001777  0000              add [eax],al
00001779  0000              add [eax],al
0000177B  0000              add [eax],al
0000177D  0000              add [eax],al
0000177F  0000              add [eax],al
00001781  0000              add [eax],al
00001783  0000              add [eax],al
00001785  0000              add [eax],al
00001787  0000              add [eax],al
00001789  0000              add [eax],al
0000178B  0000              add [eax],al
0000178D  0000              add [eax],al
0000178F  0000              add [eax],al
00001791  0000              add [eax],al
00001793  0000              add [eax],al
00001795  0000              add [eax],al
00001797  0000              add [eax],al
00001799  0000              add [eax],al
0000179B  0000              add [eax],al
0000179D  0000              add [eax],al
0000179F  0000              add [eax],al
000017A1  0000              add [eax],al
000017A3  0000              add [eax],al
000017A5  0000              add [eax],al
000017A7  0000              add [eax],al
000017A9  0000              add [eax],al
000017AB  0000              add [eax],al
000017AD  0000              add [eax],al
000017AF  0000              add [eax],al
000017B1  0000              add [eax],al
000017B3  0000              add [eax],al
000017B5  0000              add [eax],al
000017B7  0000              add [eax],al
000017B9  0000              add [eax],al
000017BB  0000              add [eax],al
000017BD  0000              add [eax],al
000017BF  0000              add [eax],al
000017C1  0000              add [eax],al
000017C3  0000              add [eax],al
000017C5  0000              add [eax],al
000017C7  0000              add [eax],al
000017C9  0000              add [eax],al
000017CB  0000              add [eax],al
000017CD  0000              add [eax],al
000017CF  0000              add [eax],al
000017D1  0000              add [eax],al
000017D3  0000              add [eax],al
000017D5  0000              add [eax],al
000017D7  0000              add [eax],al
000017D9  0000              add [eax],al
000017DB  0000              add [eax],al
000017DD  0000              add [eax],al
000017DF  0000              add [eax],al
000017E1  0000              add [eax],al
000017E3  0000              add [eax],al
000017E5  0000              add [eax],al
000017E7  0000              add [eax],al
000017E9  0000              add [eax],al
000017EB  0000              add [eax],al
000017ED  0000              add [eax],al
000017EF  0000              add [eax],al
000017F1  0000              add [eax],al
000017F3  0000              add [eax],al
000017F5  0000              add [eax],al
000017F7  0000              add [eax],al
000017F9  0000              add [eax],al
000017FB  0000              add [eax],al
000017FD  0000              add [eax],al
000017FF  0000              add [eax],al
00001801  0000              add [eax],al
00001803  0000              add [eax],al
00001805  0000              add [eax],al
00001807  0000              add [eax],al
00001809  0000              add [eax],al
0000180B  0000              add [eax],al
0000180D  0000              add [eax],al
0000180F  0000              add [eax],al
00001811  0000              add [eax],al
00001813  0000              add [eax],al
00001815  0000              add [eax],al
00001817  0000              add [eax],al
00001819  0000              add [eax],al
0000181B  0000              add [eax],al
0000181D  0000              add [eax],al
0000181F  0000              add [eax],al
00001821  0000              add [eax],al
00001823  0000              add [eax],al
00001825  0000              add [eax],al
00001827  0000              add [eax],al
00001829  0000              add [eax],al
0000182B  0000              add [eax],al
0000182D  0000              add [eax],al
0000182F  0000              add [eax],al
00001831  0000              add [eax],al
00001833  0000              add [eax],al
00001835  0000              add [eax],al
00001837  0000              add [eax],al
00001839  0000              add [eax],al
0000183B  0000              add [eax],al
0000183D  0000              add [eax],al
0000183F  0000              add [eax],al
00001841  0000              add [eax],al
00001843  0000              add [eax],al
00001845  0000              add [eax],al
00001847  0000              add [eax],al
00001849  0000              add [eax],al
0000184B  0000              add [eax],al
0000184D  0000              add [eax],al
0000184F  0000              add [eax],al
00001851  0000              add [eax],al
00001853  0000              add [eax],al
00001855  0000              add [eax],al
00001857  0000              add [eax],al
00001859  0000              add [eax],al
0000185B  0000              add [eax],al
0000185D  0000              add [eax],al
0000185F  0000              add [eax],al
00001861  0000              add [eax],al
00001863  0000              add [eax],al
00001865  0000              add [eax],al
00001867  0000              add [eax],al
00001869  0000              add [eax],al
0000186B  0000              add [eax],al
0000186D  0000              add [eax],al
0000186F  0000              add [eax],al
00001871  0000              add [eax],al
00001873  0000              add [eax],al
00001875  0000              add [eax],al
00001877  0000              add [eax],al
00001879  0000              add [eax],al
0000187B  0000              add [eax],al
0000187D  0000              add [eax],al
0000187F  0000              add [eax],al
00001881  0000              add [eax],al
00001883  0000              add [eax],al
00001885  0000              add [eax],al
00001887  0000              add [eax],al
00001889  0000              add [eax],al
0000188B  0000              add [eax],al
0000188D  0000              add [eax],al
0000188F  0000              add [eax],al
00001891  0000              add [eax],al
00001893  0000              add [eax],al
00001895  0000              add [eax],al
00001897  0000              add [eax],al
00001899  0000              add [eax],al
0000189B  0000              add [eax],al
0000189D  0000              add [eax],al
0000189F  0000              add [eax],al
000018A1  0000              add [eax],al
000018A3  0000              add [eax],al
000018A5  0000              add [eax],al
000018A7  0000              add [eax],al
000018A9  0000              add [eax],al
000018AB  0000              add [eax],al
000018AD  0000              add [eax],al
000018AF  0000              add [eax],al
000018B1  0000              add [eax],al
000018B3  0000              add [eax],al
000018B5  0000              add [eax],al
000018B7  0000              add [eax],al
000018B9  0000              add [eax],al
000018BB  0000              add [eax],al
000018BD  0000              add [eax],al
000018BF  0000              add [eax],al
000018C1  0000              add [eax],al
000018C3  0000              add [eax],al
000018C5  0000              add [eax],al
000018C7  0000              add [eax],al
000018C9  0000              add [eax],al
000018CB  0000              add [eax],al
000018CD  0000              add [eax],al
000018CF  0000              add [eax],al
000018D1  0000              add [eax],al
000018D3  0000              add [eax],al
000018D5  0000              add [eax],al
000018D7  0000              add [eax],al
000018D9  0000              add [eax],al
000018DB  0000              add [eax],al
000018DD  0000              add [eax],al
000018DF  0000              add [eax],al
000018E1  0000              add [eax],al
000018E3  0000              add [eax],al
000018E5  0000              add [eax],al
000018E7  0000              add [eax],al
000018E9  0000              add [eax],al
000018EB  0000              add [eax],al
000018ED  0000              add [eax],al
000018EF  0000              add [eax],al
000018F1  0000              add [eax],al
000018F3  0000              add [eax],al
000018F5  0000              add [eax],al
000018F7  0000              add [eax],al
000018F9  0000              add [eax],al
000018FB  0000              add [eax],al
000018FD  0000              add [eax],al
000018FF  0000              add [eax],al
00001901  0000              add [eax],al
00001903  0000              add [eax],al
00001905  0000              add [eax],al
00001907  0000              add [eax],al
00001909  0000              add [eax],al
0000190B  0000              add [eax],al
0000190D  0000              add [eax],al
0000190F  0000              add [eax],al
00001911  0000              add [eax],al
00001913  0000              add [eax],al
00001915  0000              add [eax],al
00001917  0000              add [eax],al
00001919  0000              add [eax],al
0000191B  0000              add [eax],al
0000191D  0000              add [eax],al
0000191F  0000              add [eax],al
00001921  0000              add [eax],al
00001923  0000              add [eax],al
00001925  0000              add [eax],al
00001927  0000              add [eax],al
00001929  0000              add [eax],al
0000192B  0000              add [eax],al
0000192D  0000              add [eax],al
0000192F  0000              add [eax],al
00001931  0000              add [eax],al
00001933  0000              add [eax],al
00001935  0000              add [eax],al
00001937  0000              add [eax],al
00001939  0000              add [eax],al
0000193B  0000              add [eax],al
0000193D  0000              add [eax],al
0000193F  0000              add [eax],al
00001941  0000              add [eax],al
00001943  0000              add [eax],al
00001945  0000              add [eax],al
00001947  0000              add [eax],al
00001949  0000              add [eax],al
0000194B  0000              add [eax],al
0000194D  0000              add [eax],al
0000194F  0000              add [eax],al
00001951  0000              add [eax],al
00001953  0000              add [eax],al
00001955  0000              add [eax],al
00001957  0000              add [eax],al
00001959  0000              add [eax],al
0000195B  0000              add [eax],al
0000195D  0000              add [eax],al
0000195F  0000              add [eax],al
00001961  0000              add [eax],al
00001963  0000              add [eax],al
00001965  0000              add [eax],al
00001967  0000              add [eax],al
00001969  0000              add [eax],al
0000196B  0000              add [eax],al
0000196D  0000              add [eax],al
0000196F  0000              add [eax],al
00001971  0000              add [eax],al
00001973  0000              add [eax],al
00001975  0000              add [eax],al
00001977  0000              add [eax],al
00001979  0000              add [eax],al
0000197B  0000              add [eax],al
0000197D  0000              add [eax],al
0000197F  0000              add [eax],al
00001981  0000              add [eax],al
00001983  0000              add [eax],al
00001985  0000              add [eax],al
00001987  0000              add [eax],al
00001989  0000              add [eax],al
0000198B  0000              add [eax],al
0000198D  0000              add [eax],al
0000198F  0000              add [eax],al
00001991  0000              add [eax],al
00001993  0000              add [eax],al
00001995  0000              add [eax],al
00001997  0000              add [eax],al
00001999  0000              add [eax],al
0000199B  0000              add [eax],al
0000199D  0000              add [eax],al
0000199F  0000              add [eax],al
000019A1  0000              add [eax],al
000019A3  0000              add [eax],al
000019A5  0000              add [eax],al
000019A7  0000              add [eax],al
000019A9  0000              add [eax],al
000019AB  0000              add [eax],al
000019AD  0000              add [eax],al
000019AF  0000              add [eax],al
000019B1  0000              add [eax],al
000019B3  0000              add [eax],al
000019B5  0000              add [eax],al
000019B7  0000              add [eax],al
000019B9  0000              add [eax],al
000019BB  0000              add [eax],al
000019BD  0000              add [eax],al
000019BF  0000              add [eax],al
000019C1  0000              add [eax],al
000019C3  0000              add [eax],al
000019C5  0000              add [eax],al
000019C7  0000              add [eax],al
000019C9  0000              add [eax],al
000019CB  0000              add [eax],al
000019CD  0000              add [eax],al
000019CF  0000              add [eax],al
000019D1  0000              add [eax],al
000019D3  0000              add [eax],al
000019D5  0000              add [eax],al
000019D7  0000              add [eax],al
000019D9  0000              add [eax],al
000019DB  0000              add [eax],al
000019DD  0000              add [eax],al
000019DF  0000              add [eax],al
000019E1  0000              add [eax],al
000019E3  0000              add [eax],al
000019E5  0000              add [eax],al
000019E7  0000              add [eax],al
000019E9  0000              add [eax],al
000019EB  0000              add [eax],al
000019ED  0000              add [eax],al
000019EF  0000              add [eax],al
000019F1  0000              add [eax],al
000019F3  0000              add [eax],al
000019F5  0000              add [eax],al
000019F7  0000              add [eax],al
000019F9  0000              add [eax],al
000019FB  0000              add [eax],al
000019FD  0000              add [eax],al
000019FF  0000              add [eax],al
00001A01  0000              add [eax],al
00001A03  0000              add [eax],al
00001A05  0000              add [eax],al
00001A07  0000              add [eax],al
00001A09  0000              add [eax],al
00001A0B  0000              add [eax],al
00001A0D  0000              add [eax],al
00001A0F  0000              add [eax],al
00001A11  0000              add [eax],al
00001A13  0000              add [eax],al
00001A15  0000              add [eax],al
00001A17  0000              add [eax],al
00001A19  0000              add [eax],al
00001A1B  0000              add [eax],al
00001A1D  0000              add [eax],al
00001A1F  0000              add [eax],al
00001A21  0000              add [eax],al
00001A23  0000              add [eax],al
00001A25  0000              add [eax],al
00001A27  0000              add [eax],al
00001A29  0000              add [eax],al
00001A2B  0000              add [eax],al
00001A2D  0000              add [eax],al
00001A2F  0000              add [eax],al
00001A31  0000              add [eax],al
00001A33  0000              add [eax],al
00001A35  0000              add [eax],al
00001A37  0000              add [eax],al
00001A39  0000              add [eax],al
00001A3B  0000              add [eax],al
00001A3D  0000              add [eax],al
00001A3F  0000              add [eax],al
00001A41  0000              add [eax],al
00001A43  0000              add [eax],al
00001A45  0000              add [eax],al
00001A47  0000              add [eax],al
00001A49  0000              add [eax],al
00001A4B  0000              add [eax],al
00001A4D  0000              add [eax],al
00001A4F  0000              add [eax],al
00001A51  0000              add [eax],al
00001A53  0000              add [eax],al
00001A55  0000              add [eax],al
00001A57  0000              add [eax],al
00001A59  0000              add [eax],al
00001A5B  0000              add [eax],al
00001A5D  0000              add [eax],al
00001A5F  0000              add [eax],al
00001A61  0000              add [eax],al
00001A63  0000              add [eax],al
00001A65  0000              add [eax],al
00001A67  0000              add [eax],al
00001A69  0000              add [eax],al
00001A6B  0000              add [eax],al
00001A6D  0000              add [eax],al
00001A6F  0000              add [eax],al
00001A71  0000              add [eax],al
00001A73  0000              add [eax],al
00001A75  0000              add [eax],al
00001A77  0000              add [eax],al
00001A79  0000              add [eax],al
00001A7B  0000              add [eax],al
00001A7D  0000              add [eax],al
00001A7F  0000              add [eax],al
00001A81  0000              add [eax],al
00001A83  0000              add [eax],al
00001A85  0000              add [eax],al
00001A87  0000              add [eax],al
00001A89  0000              add [eax],al
00001A8B  0000              add [eax],al
00001A8D  0000              add [eax],al
00001A8F  0000              add [eax],al
00001A91  0000              add [eax],al
00001A93  0000              add [eax],al
00001A95  0000              add [eax],al
00001A97  0000              add [eax],al
00001A99  0000              add [eax],al
00001A9B  0000              add [eax],al
00001A9D  0000              add [eax],al
00001A9F  0000              add [eax],al
00001AA1  0000              add [eax],al
00001AA3  0000              add [eax],al
00001AA5  0000              add [eax],al
00001AA7  0000              add [eax],al
00001AA9  0000              add [eax],al
00001AAB  0000              add [eax],al
00001AAD  0000              add [eax],al
00001AAF  0000              add [eax],al
00001AB1  0000              add [eax],al
00001AB3  0000              add [eax],al
00001AB5  0000              add [eax],al
00001AB7  0000              add [eax],al
00001AB9  0000              add [eax],al
00001ABB  0000              add [eax],al
00001ABD  0000              add [eax],al
00001ABF  0000              add [eax],al
00001AC1  0000              add [eax],al
00001AC3  0000              add [eax],al
00001AC5  0000              add [eax],al
00001AC7  0000              add [eax],al
00001AC9  0000              add [eax],al
00001ACB  0000              add [eax],al
00001ACD  0000              add [eax],al
00001ACF  0000              add [eax],al
00001AD1  0000              add [eax],al
00001AD3  0000              add [eax],al
00001AD5  0000              add [eax],al
00001AD7  0000              add [eax],al
00001AD9  0000              add [eax],al
00001ADB  0000              add [eax],al
00001ADD  0000              add [eax],al
00001ADF  0000              add [eax],al
00001AE1  0000              add [eax],al
00001AE3  0000              add [eax],al
00001AE5  0000              add [eax],al
00001AE7  0000              add [eax],al
00001AE9  0000              add [eax],al
00001AEB  0000              add [eax],al
00001AED  0000              add [eax],al
00001AEF  0000              add [eax],al
00001AF1  0000              add [eax],al
00001AF3  0000              add [eax],al
00001AF5  0000              add [eax],al
00001AF7  0000              add [eax],al
00001AF9  0000              add [eax],al
00001AFB  0000              add [eax],al
00001AFD  0000              add [eax],al
00001AFF  0000              add [eax],al
00001B01  0000              add [eax],al
00001B03  0000              add [eax],al
00001B05  0000              add [eax],al
00001B07  0000              add [eax],al
00001B09  0000              add [eax],al
00001B0B  0000              add [eax],al
00001B0D  0000              add [eax],al
00001B0F  0000              add [eax],al
00001B11  0000              add [eax],al
00001B13  0000              add [eax],al
00001B15  0000              add [eax],al
00001B17  0000              add [eax],al
00001B19  0000              add [eax],al
00001B1B  0000              add [eax],al
00001B1D  0000              add [eax],al
00001B1F  0000              add [eax],al
00001B21  0000              add [eax],al
00001B23  0000              add [eax],al
00001B25  0000              add [eax],al
00001B27  0000              add [eax],al
00001B29  0000              add [eax],al
00001B2B  0000              add [eax],al
00001B2D  0000              add [eax],al
00001B2F  0000              add [eax],al
00001B31  0000              add [eax],al
00001B33  0000              add [eax],al
00001B35  0000              add [eax],al
00001B37  0000              add [eax],al
00001B39  0000              add [eax],al
00001B3B  0000              add [eax],al
00001B3D  0000              add [eax],al
00001B3F  0000              add [eax],al
00001B41  0000              add [eax],al
00001B43  0000              add [eax],al
00001B45  0000              add [eax],al
00001B47  0000              add [eax],al
00001B49  0000              add [eax],al
00001B4B  0000              add [eax],al
00001B4D  0000              add [eax],al
00001B4F  0000              add [eax],al
00001B51  0000              add [eax],al
00001B53  0000              add [eax],al
00001B55  0000              add [eax],al
00001B57  0000              add [eax],al
00001B59  0000              add [eax],al
00001B5B  0000              add [eax],al
00001B5D  0000              add [eax],al
00001B5F  0000              add [eax],al
00001B61  0000              add [eax],al
00001B63  0000              add [eax],al
00001B65  0000              add [eax],al
00001B67  0000              add [eax],al
00001B69  0000              add [eax],al
00001B6B  0000              add [eax],al
00001B6D  0000              add [eax],al
00001B6F  0000              add [eax],al
00001B71  0000              add [eax],al
00001B73  0000              add [eax],al
00001B75  0000              add [eax],al
00001B77  0000              add [eax],al
00001B79  0000              add [eax],al
00001B7B  0000              add [eax],al
00001B7D  0000              add [eax],al
00001B7F  0000              add [eax],al
00001B81  0000              add [eax],al
00001B83  0000              add [eax],al
00001B85  0000              add [eax],al
00001B87  0000              add [eax],al
00001B89  0000              add [eax],al
00001B8B  0000              add [eax],al
00001B8D  0000              add [eax],al
00001B8F  0000              add [eax],al
00001B91  0000              add [eax],al
00001B93  0000              add [eax],al
00001B95  0000              add [eax],al
00001B97  0000              add [eax],al
00001B99  0000              add [eax],al
00001B9B  0000              add [eax],al
00001B9D  0000              add [eax],al
00001B9F  0000              add [eax],al
00001BA1  0000              add [eax],al
00001BA3  0000              add [eax],al
00001BA5  0000              add [eax],al
00001BA7  0000              add [eax],al
00001BA9  0000              add [eax],al
00001BAB  0000              add [eax],al
00001BAD  0000              add [eax],al
00001BAF  0000              add [eax],al
00001BB1  0000              add [eax],al
00001BB3  0000              add [eax],al
00001BB5  0000              add [eax],al
00001BB7  0000              add [eax],al
00001BB9  0000              add [eax],al
00001BBB  0000              add [eax],al
00001BBD  0000              add [eax],al
00001BBF  0000              add [eax],al
00001BC1  0000              add [eax],al
00001BC3  0000              add [eax],al
00001BC5  0000              add [eax],al
00001BC7  0000              add [eax],al
00001BC9  0000              add [eax],al
00001BCB  0000              add [eax],al
00001BCD  0000              add [eax],al
00001BCF  0000              add [eax],al
00001BD1  0000              add [eax],al
00001BD3  0000              add [eax],al
00001BD5  0000              add [eax],al
00001BD7  0000              add [eax],al
00001BD9  0000              add [eax],al
00001BDB  0000              add [eax],al
00001BDD  0000              add [eax],al
00001BDF  0000              add [eax],al
00001BE1  0000              add [eax],al
00001BE3  0000              add [eax],al
00001BE5  0000              add [eax],al
00001BE7  0000              add [eax],al
00001BE9  0000              add [eax],al
00001BEB  0000              add [eax],al
00001BED  0000              add [eax],al
00001BEF  0000              add [eax],al
00001BF1  0000              add [eax],al
00001BF3  0000              add [eax],al
00001BF5  0000              add [eax],al
00001BF7  0000              add [eax],al
00001BF9  0000              add [eax],al
00001BFB  0000              add [eax],al
00001BFD  0000              add [eax],al
00001BFF  0000              add [eax],al
00001C01  0000              add [eax],al
00001C03  0000              add [eax],al
00001C05  0000              add [eax],al
00001C07  0000              add [eax],al
00001C09  0000              add [eax],al
00001C0B  0000              add [eax],al
00001C0D  0000              add [eax],al
00001C0F  0000              add [eax],al
00001C11  0000              add [eax],al
00001C13  0000              add [eax],al
00001C15  0000              add [eax],al
00001C17  0000              add [eax],al
00001C19  0000              add [eax],al
00001C1B  0000              add [eax],al
00001C1D  0000              add [eax],al
00001C1F  0000              add [eax],al
00001C21  0000              add [eax],al
00001C23  0000              add [eax],al
00001C25  0000              add [eax],al
00001C27  0000              add [eax],al
00001C29  0000              add [eax],al
00001C2B  0000              add [eax],al
00001C2D  0000              add [eax],al
00001C2F  0000              add [eax],al
00001C31  0000              add [eax],al
00001C33  0000              add [eax],al
00001C35  0000              add [eax],al
00001C37  0000              add [eax],al
00001C39  0000              add [eax],al
00001C3B  0000              add [eax],al
00001C3D  0000              add [eax],al
00001C3F  0000              add [eax],al
00001C41  0000              add [eax],al
00001C43  0000              add [eax],al
00001C45  0000              add [eax],al
00001C47  0000              add [eax],al
00001C49  0000              add [eax],al
00001C4B  0000              add [eax],al
00001C4D  0000              add [eax],al
00001C4F  0000              add [eax],al
00001C51  0000              add [eax],al
00001C53  0000              add [eax],al
00001C55  0000              add [eax],al
00001C57  0000              add [eax],al
00001C59  0000              add [eax],al
00001C5B  0000              add [eax],al
00001C5D  0000              add [eax],al
00001C5F  0000              add [eax],al
00001C61  0000              add [eax],al
00001C63  0000              add [eax],al
00001C65  0000              add [eax],al
00001C67  0000              add [eax],al
00001C69  0000              add [eax],al
00001C6B  0000              add [eax],al
00001C6D  0000              add [eax],al
00001C6F  0000              add [eax],al
00001C71  0000              add [eax],al
00001C73  0000              add [eax],al
00001C75  0000              add [eax],al
00001C77  0000              add [eax],al
00001C79  0000              add [eax],al
00001C7B  0000              add [eax],al
00001C7D  0000              add [eax],al
00001C7F  0000              add [eax],al
00001C81  0000              add [eax],al
00001C83  0000              add [eax],al
00001C85  0000              add [eax],al
00001C87  0000              add [eax],al
00001C89  0000              add [eax],al
00001C8B  0000              add [eax],al
00001C8D  0000              add [eax],al
00001C8F  0000              add [eax],al
00001C91  0000              add [eax],al
00001C93  0000              add [eax],al
00001C95  0000              add [eax],al
00001C97  0000              add [eax],al
00001C99  0000              add [eax],al
00001C9B  0000              add [eax],al
00001C9D  0000              add [eax],al
00001C9F  0000              add [eax],al
00001CA1  0000              add [eax],al
00001CA3  0000              add [eax],al
00001CA5  0000              add [eax],al
00001CA7  0000              add [eax],al
00001CA9  0000              add [eax],al
00001CAB  0000              add [eax],al
00001CAD  0000              add [eax],al
00001CAF  0000              add [eax],al
00001CB1  0000              add [eax],al
00001CB3  0000              add [eax],al
00001CB5  0000              add [eax],al
00001CB7  0000              add [eax],al
00001CB9  0000              add [eax],al
00001CBB  0000              add [eax],al
00001CBD  0000              add [eax],al
00001CBF  0000              add [eax],al
00001CC1  0000              add [eax],al
00001CC3  0000              add [eax],al
00001CC5  0000              add [eax],al
00001CC7  0000              add [eax],al
00001CC9  0000              add [eax],al
00001CCB  0000              add [eax],al
00001CCD  0000              add [eax],al
00001CCF  0000              add [eax],al
00001CD1  0000              add [eax],al
00001CD3  0000              add [eax],al
00001CD5  0000              add [eax],al
00001CD7  0000              add [eax],al
00001CD9  0000              add [eax],al
00001CDB  0000              add [eax],al
00001CDD  0000              add [eax],al
00001CDF  0000              add [eax],al
00001CE1  0000              add [eax],al
00001CE3  0000              add [eax],al
00001CE5  0000              add [eax],al
00001CE7  0000              add [eax],al
00001CE9  0000              add [eax],al
00001CEB  0000              add [eax],al
00001CED  0000              add [eax],al
00001CEF  0000              add [eax],al
00001CF1  0000              add [eax],al
00001CF3  0000              add [eax],al
00001CF5  0000              add [eax],al
00001CF7  0000              add [eax],al
00001CF9  0000              add [eax],al
00001CFB  0000              add [eax],al
00001CFD  0000              add [eax],al
00001CFF  0000              add [eax],al
00001D01  0000              add [eax],al
00001D03  0000              add [eax],al
00001D05  0000              add [eax],al
00001D07  0000              add [eax],al
00001D09  0000              add [eax],al
00001D0B  0000              add [eax],al
00001D0D  0000              add [eax],al
00001D0F  0000              add [eax],al
00001D11  0000              add [eax],al
00001D13  0000              add [eax],al
00001D15  0000              add [eax],al
00001D17  0000              add [eax],al
00001D19  0000              add [eax],al
00001D1B  0000              add [eax],al
00001D1D  0000              add [eax],al
00001D1F  0000              add [eax],al
00001D21  0000              add [eax],al
00001D23  0000              add [eax],al
00001D25  0000              add [eax],al
00001D27  0000              add [eax],al
00001D29  0000              add [eax],al
00001D2B  0000              add [eax],al
00001D2D  0000              add [eax],al
00001D2F  0000              add [eax],al
00001D31  0000              add [eax],al
00001D33  0000              add [eax],al
00001D35  0000              add [eax],al
00001D37  0000              add [eax],al
00001D39  0000              add [eax],al
00001D3B  0000              add [eax],al
00001D3D  0000              add [eax],al
00001D3F  0000              add [eax],al
00001D41  0000              add [eax],al
00001D43  0000              add [eax],al
00001D45  0000              add [eax],al
00001D47  0000              add [eax],al
00001D49  0000              add [eax],al
00001D4B  0000              add [eax],al
00001D4D  0000              add [eax],al
00001D4F  0000              add [eax],al
00001D51  0000              add [eax],al
00001D53  0000              add [eax],al
00001D55  0000              add [eax],al
00001D57  0000              add [eax],al
00001D59  0000              add [eax],al
00001D5B  0000              add [eax],al
00001D5D  0000              add [eax],al
00001D5F  0000              add [eax],al
00001D61  0000              add [eax],al
00001D63  0000              add [eax],al
00001D65  0000              add [eax],al
00001D67  0000              add [eax],al
00001D69  0000              add [eax],al
00001D6B  0000              add [eax],al
00001D6D  0000              add [eax],al
00001D6F  0000              add [eax],al
00001D71  0000              add [eax],al
00001D73  0000              add [eax],al
00001D75  0000              add [eax],al
00001D77  0000              add [eax],al
00001D79  0000              add [eax],al
00001D7B  0000              add [eax],al
00001D7D  0000              add [eax],al
00001D7F  0000              add [eax],al
00001D81  0000              add [eax],al
00001D83  0000              add [eax],al
00001D85  0000              add [eax],al
00001D87  0000              add [eax],al
00001D89  0000              add [eax],al
00001D8B  0000              add [eax],al
00001D8D  0000              add [eax],al
00001D8F  0000              add [eax],al
00001D91  0000              add [eax],al
00001D93  0000              add [eax],al
00001D95  0000              add [eax],al
00001D97  0000              add [eax],al
00001D99  0000              add [eax],al
00001D9B  0000              add [eax],al
00001D9D  0000              add [eax],al
00001D9F  0000              add [eax],al
00001DA1  0000              add [eax],al
00001DA3  0000              add [eax],al
00001DA5  0000              add [eax],al
00001DA7  0000              add [eax],al
00001DA9  0000              add [eax],al
00001DAB  0000              add [eax],al
00001DAD  0000              add [eax],al
00001DAF  0000              add [eax],al
00001DB1  0000              add [eax],al
00001DB3  0000              add [eax],al
00001DB5  0000              add [eax],al
00001DB7  0000              add [eax],al
00001DB9  0000              add [eax],al
00001DBB  0000              add [eax],al
00001DBD  0000              add [eax],al
00001DBF  0000              add [eax],al
00001DC1  0000              add [eax],al
00001DC3  0000              add [eax],al
00001DC5  0000              add [eax],al
00001DC7  0000              add [eax],al
00001DC9  0000              add [eax],al
00001DCB  0000              add [eax],al
00001DCD  0000              add [eax],al
00001DCF  0000              add [eax],al
00001DD1  0000              add [eax],al
00001DD3  0000              add [eax],al
00001DD5  0000              add [eax],al
00001DD7  0000              add [eax],al
00001DD9  0000              add [eax],al
00001DDB  0000              add [eax],al
00001DDD  0000              add [eax],al
00001DDF  0000              add [eax],al
00001DE1  0000              add [eax],al
00001DE3  0000              add [eax],al
00001DE5  0000              add [eax],al
00001DE7  0000              add [eax],al
00001DE9  0000              add [eax],al
00001DEB  0000              add [eax],al
00001DED  0000              add [eax],al
00001DEF  0000              add [eax],al
00001DF1  0000              add [eax],al
00001DF3  0000              add [eax],al
00001DF5  0000              add [eax],al
00001DF7  0000              add [eax],al
00001DF9  0000              add [eax],al
00001DFB  0000              add [eax],al
00001DFD  0000              add [eax],al
00001DFF  0000              add [eax],al
00001E01  0000              add [eax],al
00001E03  0000              add [eax],al
00001E05  0000              add [eax],al
00001E07  0000              add [eax],al
00001E09  0000              add [eax],al
00001E0B  0000              add [eax],al
00001E0D  0000              add [eax],al
00001E0F  0000              add [eax],al
00001E11  0000              add [eax],al
00001E13  0000              add [eax],al
00001E15  0000              add [eax],al
00001E17  0000              add [eax],al
00001E19  0000              add [eax],al
00001E1B  0000              add [eax],al
00001E1D  0000              add [eax],al
00001E1F  0000              add [eax],al
00001E21  0000              add [eax],al
00001E23  0000              add [eax],al
00001E25  0000              add [eax],al
00001E27  0000              add [eax],al
00001E29  0000              add [eax],al
00001E2B  0000              add [eax],al
00001E2D  0000              add [eax],al
00001E2F  0000              add [eax],al
00001E31  0000              add [eax],al
00001E33  0000              add [eax],al
00001E35  0000              add [eax],al
00001E37  0000              add [eax],al
00001E39  0000              add [eax],al
00001E3B  0000              add [eax],al
00001E3D  0000              add [eax],al
00001E3F  0000              add [eax],al
00001E41  0000              add [eax],al
00001E43  0000              add [eax],al
00001E45  0000              add [eax],al
00001E47  0000              add [eax],al
00001E49  0000              add [eax],al
00001E4B  0000              add [eax],al
00001E4D  0000              add [eax],al
00001E4F  0000              add [eax],al
00001E51  0000              add [eax],al
00001E53  0000              add [eax],al
00001E55  0000              add [eax],al
00001E57  0000              add [eax],al
00001E59  0000              add [eax],al
00001E5B  0000              add [eax],al
00001E5D  0000              add [eax],al
00001E5F  0000              add [eax],al
00001E61  0000              add [eax],al
00001E63  0000              add [eax],al
00001E65  0000              add [eax],al
00001E67  0000              add [eax],al
00001E69  0000              add [eax],al
00001E6B  0000              add [eax],al
00001E6D  0000              add [eax],al
00001E6F  0000              add [eax],al
00001E71  0000              add [eax],al
00001E73  0000              add [eax],al
00001E75  0000              add [eax],al
00001E77  0000              add [eax],al
00001E79  0000              add [eax],al
00001E7B  0000              add [eax],al
00001E7D  0000              add [eax],al
00001E7F  0000              add [eax],al
00001E81  0000              add [eax],al
00001E83  0000              add [eax],al
00001E85  0000              add [eax],al
00001E87  0000              add [eax],al
00001E89  0000              add [eax],al
00001E8B  0000              add [eax],al
00001E8D  0000              add [eax],al
00001E8F  0000              add [eax],al
00001E91  0000              add [eax],al
00001E93  0000              add [eax],al
00001E95  0000              add [eax],al
00001E97  0000              add [eax],al
00001E99  0000              add [eax],al
00001E9B  0000              add [eax],al
00001E9D  0000              add [eax],al
00001E9F  0000              add [eax],al
00001EA1  0000              add [eax],al
00001EA3  0000              add [eax],al
00001EA5  0000              add [eax],al
00001EA7  0000              add [eax],al
00001EA9  0000              add [eax],al
00001EAB  0000              add [eax],al
00001EAD  0000              add [eax],al
00001EAF  0000              add [eax],al
00001EB1  0000              add [eax],al
00001EB3  0000              add [eax],al
00001EB5  0000              add [eax],al
00001EB7  0000              add [eax],al
00001EB9  0000              add [eax],al
00001EBB  0000              add [eax],al
00001EBD  0000              add [eax],al
00001EBF  0000              add [eax],al
00001EC1  0000              add [eax],al
00001EC3  0000              add [eax],al
00001EC5  0000              add [eax],al
00001EC7  0000              add [eax],al
00001EC9  0000              add [eax],al
00001ECB  0000              add [eax],al
00001ECD  0000              add [eax],al
00001ECF  0000              add [eax],al
00001ED1  0000              add [eax],al
00001ED3  0000              add [eax],al
00001ED5  0000              add [eax],al
00001ED7  0000              add [eax],al
00001ED9  0000              add [eax],al
00001EDB  0000              add [eax],al
00001EDD  0000              add [eax],al
00001EDF  0000              add [eax],al
00001EE1  0000              add [eax],al
00001EE3  0000              add [eax],al
00001EE5  0000              add [eax],al
00001EE7  0000              add [eax],al
00001EE9  0000              add [eax],al
00001EEB  0000              add [eax],al
00001EED  0000              add [eax],al
00001EEF  0000              add [eax],al
00001EF1  0000              add [eax],al
00001EF3  0000              add [eax],al
00001EF5  0000              add [eax],al
00001EF7  0000              add [eax],al
00001EF9  0000              add [eax],al
00001EFB  0000              add [eax],al
00001EFD  0000              add [eax],al
00001EFF  0000              add [eax],al
00001F01  0000              add [eax],al
00001F03  0000              add [eax],al
00001F05  0000              add [eax],al
00001F07  0000              add [eax],al
00001F09  0000              add [eax],al
00001F0B  0000              add [eax],al
00001F0D  0000              add [eax],al
00001F0F  0000              add [eax],al
00001F11  0000              add [eax],al
00001F13  0000              add [eax],al
00001F15  0000              add [eax],al
00001F17  0000              add [eax],al
00001F19  0000              add [eax],al
00001F1B  0000              add [eax],al
00001F1D  0000              add [eax],al
00001F1F  0000              add [eax],al
00001F21  0000              add [eax],al
00001F23  0000              add [eax],al
00001F25  0000              add [eax],al
00001F27  0000              add [eax],al
00001F29  0000              add [eax],al
00001F2B  0000              add [eax],al
00001F2D  0000              add [eax],al
00001F2F  0000              add [eax],al
00001F31  0000              add [eax],al
00001F33  0000              add [eax],al
00001F35  0000              add [eax],al
00001F37  0000              add [eax],al
00001F39  0000              add [eax],al
00001F3B  0000              add [eax],al
00001F3D  0000              add [eax],al
00001F3F  0000              add [eax],al
00001F41  0000              add [eax],al
00001F43  0000              add [eax],al
00001F45  0000              add [eax],al
00001F47  0000              add [eax],al
00001F49  0000              add [eax],al
00001F4B  0000              add [eax],al
00001F4D  0000              add [eax],al
00001F4F  0000              add [eax],al
00001F51  0000              add [eax],al
00001F53  0000              add [eax],al
00001F55  0000              add [eax],al
00001F57  0000              add [eax],al
00001F59  0000              add [eax],al
00001F5B  0000              add [eax],al
00001F5D  0000              add [eax],al
00001F5F  0000              add [eax],al
00001F61  0000              add [eax],al
00001F63  0000              add [eax],al
00001F65  0000              add [eax],al
00001F67  0000              add [eax],al
00001F69  0000              add [eax],al
00001F6B  0000              add [eax],al
00001F6D  0000              add [eax],al
00001F6F  0000              add [eax],al
00001F71  0000              add [eax],al
00001F73  0000              add [eax],al
00001F75  0000              add [eax],al
00001F77  0000              add [eax],al
00001F79  0000              add [eax],al
00001F7B  0000              add [eax],al
00001F7D  0000              add [eax],al
00001F7F  0000              add [eax],al
00001F81  0000              add [eax],al
00001F83  0000              add [eax],al
00001F85  0000              add [eax],al
00001F87  0000              add [eax],al
00001F89  0000              add [eax],al
00001F8B  0000              add [eax],al
00001F8D  0000              add [eax],al
00001F8F  0000              add [eax],al
00001F91  0000              add [eax],al
00001F93  0000              add [eax],al
00001F95  0000              add [eax],al
00001F97  0000              add [eax],al
00001F99  0000              add [eax],al
00001F9B  0000              add [eax],al
00001F9D  0000              add [eax],al
00001F9F  0000              add [eax],al
00001FA1  0000              add [eax],al
00001FA3  0000              add [eax],al
00001FA5  0000              add [eax],al
00001FA7  0000              add [eax],al
00001FA9  0000              add [eax],al
00001FAB  0000              add [eax],al
00001FAD  0000              add [eax],al
00001FAF  0000              add [eax],al
00001FB1  0000              add [eax],al
00001FB3  0000              add [eax],al
00001FB5  0000              add [eax],al
00001FB7  0000              add [eax],al
00001FB9  0000              add [eax],al
00001FBB  0000              add [eax],al
00001FBD  0000              add [eax],al
00001FBF  0000              add [eax],al
00001FC1  0000              add [eax],al
00001FC3  0000              add [eax],al
00001FC5  0000              add [eax],al
00001FC7  0000              add [eax],al
00001FC9  0000              add [eax],al
00001FCB  0000              add [eax],al
00001FCD  0000              add [eax],al
00001FCF  0000              add [eax],al
00001FD1  0000              add [eax],al
00001FD3  0000              add [eax],al
00001FD5  0000              add [eax],al
00001FD7  0000              add [eax],al
00001FD9  0000              add [eax],al
00001FDB  0000              add [eax],al
00001FDD  0000              add [eax],al
00001FDF  0000              add [eax],al
00001FE1  0000              add [eax],al
00001FE3  0000              add [eax],al
00001FE5  0000              add [eax],al
00001FE7  0000              add [eax],al
00001FE9  0000              add [eax],al
00001FEB  0000              add [eax],al
00001FED  0000              add [eax],al
00001FEF  0000              add [eax],al
00001FF1  0000              add [eax],al
00001FF3  0000              add [eax],al
00001FF5  0000              add [eax],al
00001FF7  0000              add [eax],al
00001FF9  0000              add [eax],al
00001FFB  0000              add [eax],al
00001FFD  0000              add [eax],al
00001FFF  004142            add [ecx+0x42],al
00002002  43                inc ebx
00002003  004100            add [ecx+0x0],al
00002006  0000              add [eax],al
00002008  1400              adc al,0x0
0000200A  0000              add [eax],al
0000200C  0000              add [eax],al
0000200E  0000              add [eax],al
00002010  017A52            add [edx+0x52],edi
00002013  0001              add [ecx],al
00002015  7C08              jl 0x201f
00002017  011B              add [ebx],ebx
00002019  0C04              or al,0x4
0000201B  0488              add al,0x88
0000201D  0100              add [eax],eax
0000201F  0028              add [eax],ch
00002021  0000              add [eax],al
00002023  001C00            add [eax+eax],bl
00002026  0000              add [eax],al
00002028  DFEF              fucomip st7
0000202A  FF                db 0xff
0000202B  FF2F              jmp far [edi]
0000202D  0000              add [eax],al
0000202F  0000              add [eax],al
00002031  44                inc esp
00002032  0C01              or al,0x1
00002034  004910            add [ecx+0x10],cl
00002037  0502750041        add eax,0x41007502
0000203C  0F03757C          lsl esi,[ebp+0x7c]
00002040  06                push es
00002041  5C                pop esp
00002042  0C01              or al,0x1
00002044  0041C5            add [ecx-0x3b],al
00002047  43                inc ebx
00002048  0C04              or al,0x4
0000204A  0400              add al,0x0
0000204C  1400              adc al,0x0
0000204E  0000              add [eax],al
00002050  0000              add [eax],al
00002052  0000              add [eax],al
00002054  017A52            add [edx+0x52],edi
00002057  0001              add [ecx],al
00002059  7C08              jl 0x2063
0000205B  011B              add [ebx],ebx
0000205D  0C04              or al,0x4
0000205F  0488              add al,0x88
00002061  0100              add [eax],eax
00002063  001C00            add [eax+eax],bl
00002066  0000              add [eax],al
00002068  1C00              sbb al,0x0
0000206A  0000              add [eax],al
0000206C  CAEFFF            retf 0xffef
0000206F  FF1D00000000      call far [dword 0x0]
00002075  41                inc ecx
00002076  0E                push cs
00002077  088502420D05      or [ebp+0x50d4202],al
0000207D  59                pop ecx
0000207E  C50C04            lds ecx,[esp+eax]
00002081  0400              add al,0x0
00002083  001C00            add [eax+eax],bl
00002086  0000              add [eax],al
00002088  3C00              cmp al,0x0
0000208A  0000              add [eax],al
0000208C  C7                db 0xc7
0000208D  EF                out dx,eax
0000208E  FF                db 0xff
0000208F  FF21              jmp [ecx]
00002091  0000              add [eax],al
00002093  0000              add [eax],al
00002095  41                inc ecx
00002096  0E                push cs
00002097  088502420D05      or [ebp+0x50d4202],al
0000209D  5D                pop ebp
0000209E  C50C04            lds ecx,[esp+eax]
000020A1  0400              add al,0x0
000020A3  001C00            add [eax+eax],bl
000020A6  0000              add [eax],al
000020A8  5C                pop esp
000020A9  0000              add [eax],al
000020AB  00C8              add al,cl
000020AD  EF                out dx,eax
000020AE  FF                db 0xff
000020AF  FF1F              call far [edi]
000020B1  0000              add [eax],al
000020B3  0000              add [eax],al
000020B5  41                inc ecx
000020B6  0E                push cs
000020B7  088502420D05      or [ebp+0x50d4202],al
000020BD  5B                pop ebx
000020BE  C50C04            lds ecx,[esp+eax]
000020C1  0400              add al,0x0
000020C3  001C00            add [eax+eax],bl
000020C6  0000              add [eax],al
000020C8  7C00              jl 0x20ca
000020CA  0000              add [eax],al
000020CC  C7                db 0xc7
000020CD  EF                out dx,eax
000020CE  FF                db 0xff
000020CF  FF21              jmp [ecx]
000020D1  0000              add [eax],al
000020D3  0000              add [eax],al
000020D5  41                inc ecx
000020D6  0E                push cs
000020D7  088502420D05      or [ebp+0x50d4202],al
000020DD  5D                pop ebp
000020DE  C50C04            lds ecx,[esp+eax]
000020E1  0400              add al,0x0
000020E3  001400            add [eax+eax],dl
000020E6  0000              add [eax],al
000020E8  0000              add [eax],al
000020EA  0000              add [eax],al
000020EC  017A52            add [edx+0x52],edi
000020EF  0001              add [ecx],al
000020F1  7C08              jl 0x20fb
000020F3  011B              add [ebx],ebx
000020F5  0C04              or al,0x4
000020F7  0488              add al,0x88
000020F9  0100              add [eax],eax
000020FB  001C00            add [eax+eax],bl
000020FE  0000              add [eax],al
00002100  1C00              sbb al,0x0
00002102  0000              add [eax],al
00002104  B0EF              mov al,0xef
00002106  FF                db 0xff
00002107  FF5700            call [edi+0x0]
0000210A  0000              add [eax],al
0000210C  00410E            add [ecx+0xe],al
0000210F  088502420D05      or [ebp+0x50d4202],al
00002115  0253C5            add dl,[ebx-0x3b]
00002118  0C04              or al,0x4
0000211A  0400              add al,0x0
0000211C  1C00              sbb al,0x0
0000211E  0000              add [eax],al
00002120  3C00              cmp al,0x0
00002122  0000              add [eax],al
00002124  E7EF              out 0xef,eax
00002126  FF                db 0xff
00002127  FF36              push dword [esi]
00002129  0000              add [eax],al
0000212B  0000              add [eax],al
0000212D  41                inc ecx
0000212E  0E                push cs
0000212F  088502420D05      or [ebp+0x50d4202],al
00002135  72C5              jc 0x20fc
00002137  0C04              or al,0x4
00002139  0400              add al,0x0
0000213B  001C00            add [eax+eax],bl
0000213E  0000              add [eax],al
00002140  5C                pop esp
00002141  0000              add [eax],al
00002143  00FD              add ch,bh
00002145  EF                out dx,eax
00002146  FF                db 0xff
00002147  FF                db 0xff
00002148  3A00              cmp al,[eax]
0000214A  0000              add [eax],al
0000214C  00410E            add [ecx+0xe],al
0000214F  088502420D05      or [ebp+0x50d4202],al
00002155  76C5              jna 0x211c
00002157  0C04              or al,0x4
00002159  0400              add al,0x0
0000215B  001C00            add [eax+eax],bl
0000215E  0000              add [eax],al
00002160  7C00              jl 0x2162
00002162  0000              add [eax],al
00002164  17                pop ss
00002165  F0                lock
00002166  FF                db 0xff
00002167  FF                db 0xff
00002168  7B00              jpo 0x216a
0000216A  0000              add [eax],al
0000216C  00410E            add [ecx+0xe],al
0000216F  088502420D05      or [ebp+0x50d4202],al
00002175  0277C5            add dh,[edi-0x3b]
00002178  0C04              or al,0x4
0000217A  0400              add al,0x0
0000217C  1C00              sbb al,0x0
0000217E  0000              add [eax],al
00002180  9C                pushf
00002181  0000              add [eax],al
00002183  0072F0            add [edx-0x10],dh
00002186  FF                db 0xff
00002187  FF6D00            jmp far [ebp+0x0]
0000218A  0000              add [eax],al
0000218C  00410E            add [ecx+0xe],al
0000218F  088502420D05      or [ebp+0x50d4202],al
00002195  0269C5            add ch,[ecx-0x3b]
00002198  0C04              or al,0x4
0000219A  0400              add al,0x0
0000219C  1C00              sbb al,0x0
0000219E  0000              add [eax],al
000021A0  BC000000BF        mov esp,0xbf000000
000021A5  F0                lock
000021A6  FF                db 0xff
000021A7  FF6000            jmp [eax+0x0]
000021AA  0000              add [eax],al
000021AC  00410E            add [ecx+0xe],al
000021AF  088502420D05      or [ebp+0x50d4202],al
000021B5  025CC50C          add bl,[ebp+eax*8+0xc]
000021B9  0404              add al,0x4
000021BB  00                db 0x00
